; ModuleID = '17/1375.c'
source_filename = "17/1375.c"
target datalayout = "e-m:e-p270:32:32-p271:32:32-p272:64:64-i64:64-f80:128-n8:16:32:64-S128"
target triple = "x86_64-pc-linux-gnu"

@.str = private unnamed_addr constant [3 x i8] c"%d\00", align 1
@.str.1 = private unnamed_addr constant [3 x i8] c"%s\00", align 1
@.str.2 = private unnamed_addr constant [2 x i8] c"\0A\00", align 1

; Function Attrs: noinline nounwind uwtable
define dso_local i32 @main() #0 {
  %1 = alloca i32, align 4
  %2 = alloca i32, align 4
  %3 = alloca i32, align 4
  %4 = alloca i32, align 4
  %5 = alloca [105 x i32], align 16
  %6 = alloca i32, align 4
  %7 = alloca i32, align 4
  %8 = alloca i32, align 4
  %9 = alloca [105 x i8], align 16
  %10 = alloca [105 x i8], align 16
  store i32 0, i32* %1, align 4
  %11 = call i32 (i8*, ...) @__isoc99_scanf(i8* getelementptr inbounds ([3 x i8], [3 x i8]* @.str, i64 0, i64 0), i32* %2)
  store i32 0, i32* %3, align 4
  br label %12

12:                                               ; preds = %97, %0
  %13 = load i32, i32* %3, align 4
  %14 = load i32, i32* %2, align 4
  %15 = icmp slt i32 %13, %14
  br i1 %15, label %16, label %100

16:                                               ; preds = %12
  store i32 0, i32* %4, align 4
  store i32 0, i32* %6, align 4
  %17 = getelementptr inbounds [105 x i8], [105 x i8]* %9, i64 0, i64 0
  %18 = call i32 (i8*, ...) @__isoc99_scanf(i8* getelementptr inbounds ([3 x i8], [3 x i8]* @.str.1, i64 0, i64 0), i8* %17)
  %19 = getelementptr inbounds [105 x i8], [105 x i8]* %9, i64 0, i64 0
  %20 = call i64 @strlen(i8* %19) #3
  %21 = trunc i64 %20 to i32
  store i32 %21, i32* %8, align 4
  store i32 0, i32* %7, align 4
  br label %22

22:                                               ; preds = %30, %16
  %23 = load i32, i32* %7, align 4
  %24 = load i32, i32* %8, align 4
  %25 = icmp slt i32 %23, %24
  br i1 %25, label %26, label %33

26:                                               ; preds = %22
  %27 = load i32, i32* %7, align 4
  %28 = sext i32 %27 to i64
  %29 = getelementptr inbounds [105 x i8], [105 x i8]* %10, i64 0, i64 %28
  store i8 32, i8* %29, align 1
  br label %30

30:                                               ; preds = %26
  %31 = load i32, i32* %7, align 4
  %32 = add nsw i32 %31, 1
  store i32 %32, i32* %7, align 4
  br label %22

33:                                               ; preds = %22
  %34 = load i32, i32* %8, align 4
  %35 = sext i32 %34 to i64
  %36 = getelementptr inbounds [105 x i8], [105 x i8]* %10, i64 0, i64 %35
  store i8 0, i8* %36, align 1
  store i32 0, i32* %7, align 4
  br label %37

37:                                               ; preds = %87, %33
  %38 = load i32, i32* %7, align 4
  %39 = load i32, i32* %8, align 4
  %40 = icmp slt i32 %38, %39
  br i1 %40, label %41, label %90

41:                                               ; preds = %37
  %42 = load i32, i32* %7, align 4
  %43 = sext i32 %42 to i64
  %44 = getelementptr inbounds [105 x i8], [105 x i8]* %9, i64 0, i64 %43
  %45 = load i8, i8* %44, align 1
  %46 = sext i8 %45 to i32
  %47 = icmp eq i32 %46, 40
  br i1 %47, label %48, label %60

48:                                               ; preds = %41
  %49 = load i32, i32* %7, align 4
  %50 = sext i32 %49 to i64
  %51 = getelementptr inbounds [105 x i8], [105 x i8]* %10, i64 0, i64 %50
  store i8 36, i8* %51, align 1
  %52 = load i32, i32* %7, align 4
  %53 = load i32, i32* %6, align 4
  %54 = sext i32 %53 to i64
  %55 = getelementptr inbounds [105 x i32], [105 x i32]* %5, i64 0, i64 %54
  store i32 %52, i32* %55, align 4
  %56 = load i32, i32* %6, align 4
  %57 = add nsw i32 %56, 1
  store i32 %57, i32* %6, align 4
  %58 = load i32, i32* %4, align 4
  %59 = add nsw i32 %58, 1
  store i32 %59, i32* %4, align 4
  br label %60

60:                                               ; preds = %48, %41
  %61 = load i32, i32* %7, align 4
  %62 = sext i32 %61 to i64
  %63 = getelementptr inbounds [105 x i8], [105 x i8]* %9, i64 0, i64 %62
  %64 = load i8, i8* %63, align 1
  %65 = sext i8 %64 to i32
  %66 = icmp eq i32 %65, 41
  br i1 %66, label %67, label %86

67:                                               ; preds = %60
  %68 = load i32, i32* %4, align 4
  %69 = icmp ne i32 %68, 0
  br i1 %69, label %70, label %81

70:                                               ; preds = %67
  %71 = load i32, i32* %6, align 4
  %72 = add nsw i32 %71, -1
  store i32 %72, i32* %6, align 4
  %73 = load i32, i32* %6, align 4
  %74 = sext i32 %73 to i64
  %75 = getelementptr inbounds [105 x i32], [105 x i32]* %5, i64 0, i64 %74
  %76 = load i32, i32* %75, align 4
  %77 = sext i32 %76 to i64
  %78 = getelementptr inbounds [105 x i8], [105 x i8]* %10, i64 0, i64 %77
  store i8 32, i8* %78, align 1
  %79 = load i32, i32* %4, align 4
  %80 = add nsw i32 %79, -1
  store i32 %80, i32* %4, align 4
  br label %85

81:                                               ; preds = %67
  %82 = load i32, i32* %7, align 4
  %83 = sext i32 %82 to i64
  %84 = getelementptr inbounds [105 x i8], [105 x i8]* %10, i64 0, i64 %83
  store i8 63, i8* %84, align 1
  br label %85

85:                                               ; preds = %81, %70
  br label %86

86:                                               ; preds = %85, %60
  br label %87

87:                                               ; preds = %86
  %88 = load i32, i32* %7, align 4
  %89 = add nsw i32 %88, 1
  store i32 %89, i32* %7, align 4
  br label %37

90:                                               ; preds = %37
  %91 = getelementptr inbounds [105 x i8], [105 x i8]* %9, i64 0, i64 0
  %92 = call i32 (i8*, ...) @printf(i8* getelementptr inbounds ([3 x i8], [3 x i8]* @.str.1, i64 0, i64 0), i8* %91)
  %93 = call i32 (i8*, ...) @printf(i8* getelementptr inbounds ([2 x i8], [2 x i8]* @.str.2, i64 0, i64 0))
  %94 = getelementptr inbounds [105 x i8], [105 x i8]* %10, i64 0, i64 0
  %95 = call i32 (i8*, ...) @printf(i8* getelementptr inbounds ([3 x i8], [3 x i8]* @.str.1, i64 0, i64 0), i8* %94)
  %96 = call i32 (i8*, ...) @printf(i8* getelementptr inbounds ([2 x i8], [2 x i8]* @.str.2, i64 0, i64 0))
  br label %97

97:                                               ; preds = %90
  %98 = load i32, i32* %3, align 4
  %99 = add nsw i32 %98, 1
  store i32 %99, i32* %3, align 4
  br label %12

100:                                              ; preds = %12
  ret i32 0
}

declare dso_local i32 @__isoc99_scanf(i8*, ...) #1

; Function Attrs: nounwind readonly
declare dso_local i64 @strlen(i8*) #2

declare dso_local i32 @printf(i8*, ...) #1


!llvm.module.flags = !{!0}
!llvm.ident = !{!1}

!0 = !{i32 1, !"wchar_size", i32 4}
!1 = !{!"clang version 10.0.0-4ubuntu1 "}
